target datalayout = "e-m:e-p270:32:32-p271:32:32-p272:64:64-i64:64-i128:128-f80:128-n8:16:32:64-S128"
target triple = "x86_64-pc-linux-gnu"

%struct._object = type { %union.anon, ptr }
%union.anon = type { i64 }

@_Py_NoneStruct = external global %struct._object, align 8
@PyExc_ValueError = external global ptr, align 8
@.str.27 = private unnamed_addr constant [42 x i8] c"invalid tool %d (must be between 0 and 5)\00", align 1
@.str.28 = private unnamed_addr constant [53 x i8] c"The callback can only be set for one event at a time\00", align 1
@.str.29 = private unnamed_addr constant [17 x i8] c"invalid event %d\00", align 1
@.str.30 = private unnamed_addr constant [33 x i8] c"sys.monitoring.register_callback\00", align 1
@.str.31 = private unnamed_addr constant [2 x i8] c"O\00", align 1

; Function Attrs: inlinehint nounwind uwtable
define internal i32 @_Py_bit_length(i64 noundef %0) #2 {
  %2 = alloca i32, align 4
  %3 = alloca i64, align 8
  store i64 %0, ptr %3, align 8, !tbaa !43
  %4 = load i64, ptr %3, align 8, !tbaa !43
  %5 = icmp ne i64 %4, 0
  br i1 %5, label %6, label %11

6:                                                ; preds = %1
  %7 = load i64, ptr %3, align 8, !tbaa !43
  %8 = call i64 @llvm.ctlz.i64(i64 %7, i1 true)
  %9 = trunc i64 %8 to i32
  %10 = sub i32 64, %9
  store i32 %10, ptr %2, align 4
  br label %12

11:                                               ; preds = %1
  store i32 0, ptr %2, align 4
  br label %12

12:                                               ; preds = %11, %6
  %13 = load i32, ptr %2, align 4
  ret i32 %13
}

; Function Attrs: inlinehint nounwind uwtable
define internal i32 @_Py_popcount32(i32 noundef %0) #2 {
  %2 = alloca i32, align 4
  store i32 %0, ptr %2, align 4, !tbaa !9
  br label %3

3:                                                ; preds = %1
  br label %4

4:                                                ; preds = %3
  %5 = load i32, ptr %2, align 4, !tbaa !9
  %6 = call i32 @llvm.ctpop.i32(i32 %5)
  ret i32 %6
}

; Function Attrs: nounwind uwtable
define internal i32 @check_valid_tool(i32 noundef %0) #0 {
  %2 = alloca i32, align 4
  %3 = alloca i32, align 4
  store i32 %0, ptr %3, align 4, !tbaa !9
  %4 = load i32, ptr %3, align 4, !tbaa !9
  %5 = icmp slt i32 %4, 0
  br i1 %5, label %9, label %6

6:                                                ; preds = %1
  %7 = load i32, ptr %3, align 4, !tbaa !9
  %8 = icmp sge i32 %7, 6
  br i1 %8, label %9, label %13

9:                                                ; preds = %6, %1
  %10 = load ptr, ptr @PyExc_ValueError, align 8, !tbaa !53
  %11 = load i32, ptr %3, align 4, !tbaa !9
  %12 = call ptr (ptr, ptr, ...) @PyErr_Format(ptr noundef %10, ptr noundef @.str.27, i32 noundef %11)
  store i32 -1, ptr %2, align 4
  br label %14

13:                                               ; preds = %6
  store i32 0, ptr %2, align 4
  br label %14

14:                                               ; preds = %13, %9
  %15 = load i32, ptr %2, align 4
  ret i32 %15
}

; Function Attrs: nounwind uwtable
define internal ptr @monitoring_register_callback_impl(ptr noundef %0, i32 noundef %1, i32 noundef %2, ptr noundef %3) #0 {
  %5 = alloca ptr, align 8
  %6 = alloca ptr, align 8
  %7 = alloca i32, align 4
  %8 = alloca i32, align 4
  %9 = alloca ptr, align 8
  %10 = alloca i32, align 4
  %11 = alloca i32, align 4
  store ptr %0, ptr %6, align 8, !tbaa !53
  store i32 %1, ptr %7, align 4, !tbaa !9
  store i32 %2, ptr %8, align 4, !tbaa !9
  store ptr %3, ptr %9, align 8, !tbaa !53
  %12 = load i32, ptr %7, align 4, !tbaa !9
  %13 = call i32 @check_valid_tool(i32 noundef %12)
  %14 = icmp ne i32 %13, 0
  br i1 %14, label %15, label %16

15:                                               ; preds = %4
  store ptr null, ptr %5, align 8
  br label %56

16:                                               ; preds = %4
  %17 = load i32, ptr %8, align 4, !tbaa !9
  %18 = call i32 @_Py_popcount32(i32 noundef %17)
  %19 = icmp ne i32 %18, 1
  br i1 %19, label %20, label %22

20:                                               ; preds = %16
  %21 = load ptr, ptr @PyExc_ValueError, align 8, !tbaa !53
  call void @PyErr_SetString(ptr noundef %21, ptr noundef @.str.28)
  store ptr null, ptr %5, align 8
  br label %56

22:                                               ; preds = %16
  call void @llvm.lifetime.start.p0(i64 4, ptr %10) #8
  %23 = load i32, ptr %8, align 4, !tbaa !9
  %24 = sext i32 %23 to i64
  %25 = call i32 @_Py_bit_length(i64 noundef %24)
  %26 = sub i32 %25, 1
  store i32 %26, ptr %10, align 4, !tbaa !9
  %27 = load i32, ptr %10, align 4, !tbaa !9
  %28 = icmp slt i32 %27, 0
  br i1 %28, label %32, label %29

29:                                               ; preds = %22
  %30 = load i32, ptr %10, align 4, !tbaa !9
  %31 = icmp sge i32 %30, 19
  br i1 %31, label %32, label %36

32:                                               ; preds = %29, %22
  %33 = load ptr, ptr @PyExc_ValueError, align 8, !tbaa !53
  %34 = load i32, ptr %8, align 4, !tbaa !9
  %35 = call ptr (ptr, ptr, ...) @PyErr_Format(ptr noundef %33, ptr noundef @.str.29, i32 noundef %34)
  store ptr null, ptr %5, align 8
  store i32 1, ptr %11, align 4
  br label %55

36:                                               ; preds = %29
  %37 = load ptr, ptr %9, align 8, !tbaa !53
  %38 = call i32 (ptr, ptr, ...) @PySys_Audit(ptr noundef @.str.30, ptr noundef @.str.31, ptr noundef %37)
  %39 = icmp slt i32 %38, 0
  br i1 %39, label %40, label %41

40:                                               ; preds = %36
  store ptr null, ptr %5, align 8
  store i32 1, ptr %11, align 4
  br label %55

41:                                               ; preds = %36
  %42 = load ptr, ptr %9, align 8, !tbaa !53
  %43 = icmp eq ptr %42, @_Py_NoneStruct
  br i1 %43, label %44, label %45

44:                                               ; preds = %41
  store ptr null, ptr %9, align 8, !tbaa !53
  br label %45

45:                                               ; preds = %44, %41
  %46 = load i32, ptr %7, align 4, !tbaa !9
  %47 = load i32, ptr %10, align 4, !tbaa !9
  %48 = load ptr, ptr %9, align 8, !tbaa !53
  %49 = call ptr @_PyMonitoring_RegisterCallback(i32 noundef %46, i32 noundef %47, ptr noundef %48)
  store ptr %49, ptr %9, align 8, !tbaa !53
  %50 = load ptr, ptr %9, align 8, !tbaa !53
  %51 = icmp eq ptr %50, null
  br i1 %51, label %52, label %53

52:                                               ; preds = %45
  store ptr @_Py_NoneStruct, ptr %5, align 8
  store i32 1, ptr %11, align 4
  br label %55

53:                                               ; preds = %45
  %54 = load ptr, ptr %9, align 8, !tbaa !53
  store ptr %54, ptr %5, align 8
  store i32 1, ptr %11, align 4
  br label %55

55:                                               ; preds = %53, %52, %40, %32
  call void @llvm.lifetime.end.p0(i64 4, ptr %10) #8
  br label %56

56:                                               ; preds = %55, %20, %15
  %57 = load ptr, ptr %5, align 8
  ret ptr %57
}