; Function Attrs: nounwind uwtable
define internal fastcc ptr @monitoring_register_callback_impl(i32 noundef %0, i32 noundef %1, ptr noundef %2) unnamed_addr #2 {
  %or.cond.i = icmp ugt i32 %0, 5
  br i1 %or.cond.i, label %check_valid_tool.exit, label %6

check_valid_tool.exit:                            ; preds = %3
  %4 = load ptr, ptr @PyExc_ValueError, align 8, !tbaa !46
  %5 = tail call ptr (ptr, ptr, ...) @PyErr_Format(ptr noundef %4, ptr noundef nonnull @.str.27, i32 noundef %0) #11
  br label %26

6:                                                ; preds = %3
  %7 = tail call range(i32 0, 33) i32 @llvm.ctpop.i32(i32 %1)
  %.not16 = icmp eq i32 %7, 1
  br i1 %.not16, label %10, label %8

8:                                                ; preds = %6
  %9 = load ptr, ptr @PyExc_ValueError, align 8, !tbaa !46
  tail call void @PyErr_SetString(ptr noundef %9, ptr noundef nonnull @.str.28) #11
  br label %26

10:                                               ; preds = %6
  %11 = sext i32 %1 to i64
  %12 = tail call range(i64 0, 65) i64 @llvm.ctlz.i64(i64 range(i64 -2147483648, 2147483648) %11, i1 true)
  %13 = trunc nuw nsw i64 %12 to i32
  %14 = xor i32 %13, 63
  %15 = or disjoint i32 %13, -64
  %or.cond = icmp samesign ult i32 %15, -19
  br i1 %or.cond, label %16, label %19

16:                                               ; preds = %10
  %17 = load ptr, ptr @PyExc_ValueError, align 8, !tbaa !46
  %18 = tail call ptr (ptr, ptr, ...) @PyErr_Format(ptr noundef %17, ptr noundef nonnull @.str.29, i32 noundef %1) #11
  br label %26

19:                                               ; preds = %10
  %20 = tail call i32 (ptr, ptr, ...) @PySys_Audit(ptr noundef nonnull @.str.30, ptr noundef nonnull @.str.31, ptr noundef %2) #11
  %21 = icmp slt i32 %20, 0
  br i1 %21, label %26, label %22

22:                                               ; preds = %19
  %23 = icmp eq ptr %2, @_Py_NoneStruct
  %spec.store.select = select i1 %23, ptr null, ptr %2
  %24 = tail call ptr @_PyMonitoring_RegisterCallback(i32 noundef %0, i32 noundef %14, ptr noundef %spec.store.select)
  %25 = icmp eq ptr %24, null
  %_Py_NoneStruct. = select i1 %25, ptr @_Py_NoneStruct, ptr %24
  br label %26

26:                                               ; preds = %check_valid_tool.exit, %16, %19, %22, %8
  %.0 = phi ptr [ null, %8 ], [ null, %check_valid_tool.exit ], [ null, %16 ], [ null, %19 ], [ %_Py_NoneStruct., %22 ]
  ret ptr %.0
}